; Function Attrs: nounwind sspstrong uwtable
define internal void @tcg_gen_sarv_mod_vec(i32 noundef %0, ptr noundef %1, ptr noundef %2, ptr noundef %3) #2 {
  %5 = tail call ptr @tcg_temp_new_vec_matching(ptr noundef %1) #10
  %6 = shl i32 8, %0
  %7 = add i32 %6, -1
  %8 = sext i32 %7 to i64
  %9 = tail call ptr @tcg_constant_vec_matching(ptr noundef %1, i32 noundef %0, i64 noundef %8) #10
  tail call void @tcg_gen_and_vec(i32 noundef %0, ptr noundef %5, ptr noundef %3, ptr noundef %9) #10
  tail call void @tcg_gen_sarv_vec(i32 noundef %0, ptr noundef %1, ptr noundef %2, ptr noundef %5) #10
  tail call void @tcg_temp_free_vec(ptr noundef %5) #10
  ret void
}